; Function Attrs: nounwind sspstrong uwtable
define internal fastcc noundef i64 @rb_ast_parse_str(i64 noundef %0, i64 noundef %1, i64 noundef %2, i64 noundef %3) unnamed_addr #0 {
  %5 = alloca i64, align 8
  store i64 %0, ptr %5, align 8, !tbaa !47
  %6 = call i64 @rb_string_value(ptr noundef nonnull %5) #11
  %7 = call i64 @rb_parser_new() #11
  %8 = call i64 @rb_parser_set_context(i64 noundef %7, ptr noundef null, i32 noundef 0) #11
  %9 = and i64 %1, -5
  %.not.i = icmp eq i64 %9, 0
  br i1 %.not.i, label %11, label %10

10:                                               ; preds = %4
  call void @rb_parser_set_script_lines(i64 noundef %8) #11
  br label %11

11:                                               ; preds = %10, %4
  %12 = and i64 %2, -5
  %.not7.i = icmp eq i64 %12, 0
  br i1 %.not7.i, label %14, label %13

13:                                               ; preds = %11
  call void @rb_parser_error_tolerant(i64 noundef %8) #11
  br label %14

14:                                               ; preds = %13, %11
  %15 = and i64 %3, -5
  %.not8.i = icmp eq i64 %15, 0
  br i1 %.not8.i, label %setup_vparser.exit, label %16

16:                                               ; preds = %14
  call void @rb_parser_keep_tokens(i64 noundef %8) #11
  br label %setup_vparser.exit

setup_vparser.exit:                               ; preds = %14, %16
  %17 = load i64, ptr %5, align 8, !tbaa !47
  %18 = call i64 @rb_parser_compile_string_path(i64 noundef %8, i64 noundef 4, i64 noundef %17, i32 noundef 1) #11
  %19 = call ptr @rb_ruby_ast_data_get(i64 noundef %18) #11
  %20 = getelementptr inbounds nuw i8, ptr %19, i64 8
  %21 = load ptr, ptr %20, align 8, !tbaa !54
  %.not.i5 = icmp eq ptr %21, null
  br i1 %.not.i5, label %22, label %ast_parse_done.exit

22:                                               ; preds = %setup_vparser.exit
  call void @rb_ast_dispose(ptr noundef nonnull %19) #11
  %23 = call align 8 ptr @llvm.threadlocal.address.p0(ptr align 8 @ruby_current_ec)
  %24 = load ptr, ptr %23, align 8, !tbaa !60
  %25 = getelementptr inbounds nuw i8, ptr %24, i64 112
  %26 = load i64, ptr %25, align 8, !tbaa !62
  call void @rb_exc_raise(i64 noundef %26) #12
  unreachable

ast_parse_done.exit:                              ; preds = %setup_vparser.exit
  %27 = load i64, ptr @rb_cNode, align 8, !tbaa !47
  %28 = call i64 @rb_data_typed_object_zalloc(i64 noundef %27, i64 noundef 16, ptr noundef nonnull @rb_node_type) #11
  %29 = call ptr @rb_check_typeddata(i64 noundef %28, ptr noundef nonnull @rb_node_type) #11
  store i64 %18, ptr %29, align 8, !tbaa !70
  %30 = getelementptr inbounds nuw i8, ptr %29, i64 8
  store ptr %21, ptr %30, align 8, !tbaa !72
  ret i64 %28
}